; ModuleID = '33/2340.c'
source_filename = "33/2340.c"
target datalayout = "e-m:e-p270:32:32-p271:32:32-p272:64:64-i64:64-f80:128-n8:16:32:64-S128"
target triple = "x86_64-pc-linux-gnu"

@.str = private unnamed_addr constant [4 x i8] c"%d\0A\00", align 1
@.str.1 = private unnamed_addr constant [3 x i8] c"%c\00", align 1

; Function Attrs: noinline nounwind uwtable
define dso_local i32 @main() #0 {
  %1 = alloca i32, align 4
  %2 = alloca i32, align 4
  %3 = alloca i32, align 4
  %4 = alloca i32, align 4
  %5 = alloca i32, align 4
  %6 = alloca [1000 x i8], align 16
  %7 = alloca [1000 x i8], align 16
  store i32 0, i32* %1, align 4
  %8 = call i32 (i8*, ...) @__isoc99_scanf(i8* getelementptr inbounds ([4 x i8], [4 x i8]* @.str, i64 0, i64 0), i32* %2)
  store i32 0, i32* %3, align 4
  br label %9

9:                                                ; preds = %83, %0
  %10 = load i32, i32* %3, align 4
  %11 = load i32, i32* %2, align 4
  %12 = icmp slt i32 %10, %11
  br i1 %12, label %13, label %86

13:                                               ; preds = %9
  store i32 0, i32* %4, align 4
  br label %14

14:                                               ; preds = %30, %13
  br i1 true, label %15, label %33

15:                                               ; preds = %14
  %16 = call i32 @getchar()
  %17 = trunc i32 %16 to i8
  %18 = load i32, i32* %4, align 4
  %19 = sext i32 %18 to i64
  %20 = getelementptr inbounds [1000 x i8], [1000 x i8]* %6, i64 0, i64 %19
  store i8 %17, i8* %20, align 1
  %21 = load i32, i32* %4, align 4
  %22 = sext i32 %21 to i64
  %23 = getelementptr inbounds [1000 x i8], [1000 x i8]* %6, i64 0, i64 %22
  %24 = load i8, i8* %23, align 1
  %25 = sext i8 %24 to i32
  %26 = icmp eq i32 %25, 10
  br i1 %26, label %27, label %29

27:                                               ; preds = %15
  %28 = load i32, i32* %4, align 4
  store i32 %28, i32* %5, align 4
  br label %33

29:                                               ; preds = %15
  br label %30

30:                                               ; preds = %29
  %31 = load i32, i32* %4, align 4
  %32 = add nsw i32 %31, 1
  store i32 %32, i32* %4, align 4
  br label %14

33:                                               ; preds = %27, %14
  store i32 0, i32* %4, align 4
  br label %34

34:                                               ; preds = %62, %33
  %35 = load i32, i32* %4, align 4
  %36 = load i32, i32* %5, align 4
  %37 = sub nsw i32 %36, 1
  %38 = icmp sle i32 %35, %37
  br i1 %38, label %39, label %65

39:                                               ; preds = %34
  %40 = load i32, i32* %4, align 4
  %41 = sext i32 %40 to i64
  %42 = getelementptr inbounds [1000 x i8], [1000 x i8]* %6, i64 0, i64 %41
  %43 = load i8, i8* %42, align 1
  %44 = sext i8 %43 to i32
  switch i32 %44, label %61 [
    i32 65, label %45
    i32 84, label %49
    i32 71, label %53
    i32 67, label %57
  ]

45:                                               ; preds = %39
  %46 = load i32, i32* %4, align 4
  %47 = sext i32 %46 to i64
  %48 = getelementptr inbounds [1000 x i8], [1000 x i8]* %7, i64 0, i64 %47
  store i8 84, i8* %48, align 1
  br label %61

49:                                               ; preds = %39
  %50 = load i32, i32* %4, align 4
  %51 = sext i32 %50 to i64
  %52 = getelementptr inbounds [1000 x i8], [1000 x i8]* %7, i64 0, i64 %51
  store i8 65, i8* %52, align 1
  br label %61

53:                                               ; preds = %39
  %54 = load i32, i32* %4, align 4
  %55 = sext i32 %54 to i64
  %56 = getelementptr inbounds [1000 x i8], [1000 x i8]* %7, i64 0, i64 %55
  store i8 67, i8* %56, align 1
  br label %61

57:                                               ; preds = %39
  %58 = load i32, i32* %4, align 4
  %59 = sext i32 %58 to i64
  %60 = getelementptr inbounds [1000 x i8], [1000 x i8]* %7, i64 0, i64 %59
  store i8 71, i8* %60, align 1
  br label %61

61:                                               ; preds = %39, %57, %53, %49, %45
  br label %62

62:                                               ; preds = %61
  %63 = load i32, i32* %4, align 4
  %64 = add nsw i32 %63, 1
  store i32 %64, i32* %4, align 4
  br label %34

65:                                               ; preds = %34
  store i32 0, i32* %4, align 4
  br label %66

66:                                               ; preds = %78, %65
  %67 = load i32, i32* %4, align 4
  %68 = load i32, i32* %5, align 4
  %69 = sub nsw i32 %68, 1
  %70 = icmp sle i32 %67, %69
  br i1 %70, label %71, label %81

71:                                               ; preds = %66
  %72 = load i32, i32* %4, align 4
  %73 = sext i32 %72 to i64
  %74 = getelementptr inbounds [1000 x i8], [1000 x i8]* %7, i64 0, i64 %73
  %75 = load i8, i8* %74, align 1
  %76 = sext i8 %75 to i32
  %77 = call i32 (i8*, ...) @printf(i8* getelementptr inbounds ([3 x i8], [3 x i8]* @.str.1, i64 0, i64 0), i32 %76)
  br label %78

78:                                               ; preds = %71
  %79 = load i32, i32* %4, align 4
  %80 = add nsw i32 %79, 1
  store i32 %80, i32* %4, align 4
  br label %66

81:                                               ; preds = %66
  %82 = call i32 @putchar(i32 10)
  br label %83

83:                                               ; preds = %81
  %84 = load i32, i32* %3, align 4
  %85 = add nsw i32 %84, 1
  store i32 %85, i32* %3, align 4
  br label %9

86:                                               ; preds = %9
  ret i32 0
}

declare dso_local i32 @__isoc99_scanf(i8*, ...) #1

declare dso_local i32 @getchar() #1

declare dso_local i32 @printf(i8*, ...) #1

declare dso_local i32 @putchar(i32) #1


!llvm.module.flags = !{!0}
!llvm.ident = !{!1}

!0 = !{i32 1, !"wchar_size", i32 4}
!1 = !{!"clang version 10.0.0-4ubuntu1 "}
